; Function Attrs: mustprogress nounwind uwtable
define dso_local noundef nonnull align 8 dereferenceable(48) ptr @_ZN5clanglsERN4llvm11raw_ostreamERKNS_22ObjCImplementationDeclE(ptr noundef nonnull returned align 8 dereferenceable(48) %0, ptr nocapture noundef nonnull readonly align 8 dereferenceable(133) %1) local_unnamed_addr #0 {
  %3 = getelementptr inbounds nuw i8, ptr %1, i64 88
  %4 = load ptr, ptr %3, align 8
  %5 = getelementptr inbounds nuw i8, ptr %4, i64 40
  %6 = load i64, ptr %5, align 8
  %7 = and i64 %6, 7
  %8 = icmp eq i64 %7, 0
  %9 = and i64 %6, -8
  %10 = inttoptr i64 %9 to ptr
  %.0.i.i.i.i = select i1 %8, ptr %10, ptr null
  %11 = getelementptr inbounds nuw i8, ptr %.0.i.i.i.i, i64 16
  %12 = load ptr, ptr %11, align 8
  %13 = getelementptr inbounds i8, ptr %12, i64 16
  %14 = load i64, ptr %12, align 8
  %15 = and i64 %14, 4294967295
  %16 = getelementptr inbounds nuw i8, ptr %0, i64 24
  %17 = load ptr, ptr %16, align 8
  %18 = getelementptr inbounds nuw i8, ptr %0, i64 32
  %19 = load ptr, ptr %18, align 8
  %20 = ptrtoint ptr %17 to i64
  %21 = ptrtoint ptr %19 to i64
  %22 = sub i64 %20, %21
  %23 = icmp ugt i64 %15, %22
  br i1 %23, label %24, label %26

24:                                               ; preds = %2
  %25 = tail call noundef nonnull align 8 dereferenceable(48) ptr @_ZN4llvm11raw_ostream5writeEPKcm(ptr noundef nonnull align 8 dereferenceable(48) %0, ptr noundef nonnull %13, i64 noundef %15) #23
  br label %_ZN4llvm11raw_ostreamlsENS_9StringRefE.exit

26:                                               ; preds = %2
  %.not.i = icmp eq i64 %15, 0
  br i1 %.not.i, label %_ZN4llvm11raw_ostreamlsENS_9StringRefE.exit, label %27

27:                                               ; preds = %26
  tail call void @llvm.memcpy.p0.p0.i64(ptr align 1 %19, ptr nonnull align 1 %13, i64 %15, i1 false)
  %28 = load ptr, ptr %18, align 8
  %29 = getelementptr inbounds i8, ptr %28, i64 %15
  store ptr %29, ptr %18, align 8
  br label %_ZN4llvm11raw_ostreamlsENS_9StringRefE.exit

_ZN4llvm11raw_ostreamlsENS_9StringRefE.exit:      ; preds = %24, %26, %27
  ret ptr %0
}